(lp0
(S'stty'
p1
S'/bin/stty'
p2
tp3
a(S'build_dir'
p4
S'.build/uno'
p5
tp6
a(S'boards.txt'
p7
(lp8
S'/usr/share/arduino/hardware/arduino/boards.txt'
p9
atp10
a(S'avrdude'
p11
S'/usr/share/arduino/hardware/tools/avrdude'
p12
tp13
a(S'avrdude.conf'
p14
S'/usr/share/arduino/hardware/tools/avrdude.conf'
p15
tp16
a(S'board_models'
p17
cino.environment
BoardModels
p18
((lp19
(lp20
S'uno'
p21
a(dp22
S'_coredir'
p23
S'/usr/share/arduino/hardware/arduino'
p24
sS'bootloader'
p25
(dp26
S'extended_fuses'
p27
S'0x05'
p28
sS'high_fuses'
p29
S'0xde'
p30
sS'low_fuses'
p31
S'0xff'
p32
sS'lock_bits'
p33
S'0x0F'
p34
sS'file'
p35
S'optiboot_atmega328.hex'
p36
sS'path'
p37
S'optiboot'
p38
sS'unlock_bits'
p39
S'0x3F'
p40
ssS'build'
p41
(dp42
S'core'
p43
S'arduino'
p44
sS'mcu'
p45
S'atmega328p'
p46
sS'f_cpu'
p47
S'16000000L'
p48
sS'variant'
p49
S'standard'
p50
ssS'name'
p51
S'Arduino Uno'
p52
sS'upload'
p53
(dp54
S'protocol'
p55
S'arduino'
p56
sS'maximum_size'
p57
S'32256'
p58
sS'speed'
p59
S'115200'
p60
ssaa(lp61
S'atmega328'
p62
a(dp63
g23
S'/usr/share/arduino/hardware/arduino'
p64
sS'bootloader'
p65
(dp66
S'extended_fuses'
p67
S'0x05'
p68
sS'high_fuses'
p69
S'0xDA'
p70
sS'low_fuses'
p71
S'0xFF'
p72
sS'lock_bits'
p73
S'0x0F'
p74
sS'file'
p75
S'ATmegaBOOT_168_atmega328.hex'
p76
sS'path'
p77
S'atmega'
p78
sS'unlock_bits'
p79
S'0x3F'
p80
ssS'build'
p81
(dp82
S'core'
p83
S'arduino'
p84
sS'mcu'
p85
S'atmega328p'
p86
sS'f_cpu'
p87
S'16000000L'
p88
sS'variant'
p89
S'standard'
p90
ssS'name'
p91
S'Arduino Duemilanove w/ ATmega328'
p92
sS'upload'
p93
(dp94
S'protocol'
p95
S'arduino'
p96
sS'maximum_size'
p97
S'30720'
p98
sS'speed'
p99
S'57600'
p100
ssaa(lp101
S'diecimila'
p102
a(dp103
g23
S'/usr/share/arduino/hardware/arduino'
p104
sS'bootloader'
p105
(dp106
S'extended_fuses'
p107
S'0x00'
p108
sS'high_fuses'
p109
S'0xdd'
p110
sS'low_fuses'
p111
S'0xff'
p112
sS'lock_bits'
p113
S'0x0F'
p114
sS'file'
p115
S'ATmegaBOOT_168_diecimila.hex'
p116
sS'path'
p117
S'atmega'
p118
sS'unlock_bits'
p119
S'0x3F'
p120
ssS'build'
p121
(dp122
S'core'
p123
S'arduino'
p124
sS'mcu'
p125
S'atmega168'
p126
sS'f_cpu'
p127
S'16000000L'
p128
sS'variant'
p129
S'standard'
p130
ssS'name'
p131
S'Arduino Diecimila or Duemilanove w/ ATmega168'
p132
sS'upload'
p133
(dp134
S'protocol'
p135
S'arduino'
p136
sS'maximum_size'
p137
S'14336'
p138
sS'speed'
p139
S'19200'
p140
ssaa(lp141
S'nano328'
p142
a(dp143
g23
S'/usr/share/arduino/hardware/arduino'
p144
sS'bootloader'
p145
(dp146
S'extended_fuses'
p147
S'0x05'
p148
sS'high_fuses'
p149
S'0xDA'
p150
sS'low_fuses'
p151
S'0xFF'
p152
sS'lock_bits'
p153
S'0x0F'
p154
sS'file'
p155
S'ATmegaBOOT_168_atmega328.hex'
p156
sS'path'
p157
S'atmega'
p158
sS'unlock_bits'
p159
S'0x3F'
p160
ssS'build'
p161
(dp162
S'core'
p163
S'arduino'
p164
sS'mcu'
p165
S'atmega328p'
p166
sS'f_cpu'
p167
S'16000000L'
p168
sS'variant'
p169
S'eightanaloginputs'
p170
ssS'name'
p171
S'Arduino Nano w/ ATmega328'
p172
sS'upload'
p173
(dp174
S'protocol'
p175
S'arduino'
p176
sS'maximum_size'
p177
S'30720'
p178
sS'speed'
p179
S'57600'
p180
ssaa(lp181
S'nano'
p182
a(dp183
g23
S'/usr/share/arduino/hardware/arduino'
p184
sS'bootloader'
p185
(dp186
S'extended_fuses'
p187
S'0x00'
p188
sS'high_fuses'
p189
S'0xdd'
p190
sS'low_fuses'
p191
S'0xff'
p192
sS'lock_bits'
p193
S'0x0F'
p194
sS'file'
p195
S'ATmegaBOOT_168_diecimila.hex'
p196
sS'path'
p197
S'atmega'
p198
sS'unlock_bits'
p199
S'0x3F'
p200
ssS'build'
p201
(dp202
S'core'
p203
S'arduino'
p204
sS'mcu'
p205
S'atmega168'
p206
sS'f_cpu'
p207
S'16000000L'
p208
sS'variant'
p209
S'eightanaloginputs'
p210
ssS'name'
p211
S'Arduino Nano w/ ATmega168'
p212
sS'upload'
p213
(dp214
S'protocol'
p215
S'arduino'
p216
sS'maximum_size'
p217
S'14336'
p218
sS'speed'
p219
S'19200'
p220
ssaa(lp221
S'mega2560'
p222
a(dp223
g23
S'/usr/share/arduino/hardware/arduino'
p224
sS'bootloader'
p225
(dp226
S'extended_fuses'
p227
S'0xFD'
p228
sS'high_fuses'
p229
S'0xD8'
p230
sS'low_fuses'
p231
S'0xFF'
p232
sS'lock_bits'
p233
S'0x0F'
p234
sS'file'
p235
S'stk500boot_v2_mega2560.hex'
p236
sS'path'
p237
S'stk500v2'
p238
sS'unlock_bits'
p239
S'0x3F'
p240
ssS'build'
p241
(dp242
S'core'
p243
S'arduino'
p244
sS'mcu'
p245
S'atmega2560'
p246
sS'f_cpu'
p247
S'16000000L'
p248
sS'variant'
p249
S'mega'
p250
ssS'name'
p251
S'Arduino Mega 2560 or Mega ADK'
p252
sS'upload'
p253
(dp254
S'protocol'
p255
S'stk500v2'
p256
sS'maximum_size'
p257
S'258048'
p258
sS'speed'
p259
S'115200'
p260
ssaa(lp261
S'mega'
p262
a(dp263
g23
S'/usr/share/arduino/hardware/arduino'
p264
sS'bootloader'
p265
(dp266
S'extended_fuses'
p267
S'0xF5'
p268
sS'high_fuses'
p269
S'0xDA'
p270
sS'low_fuses'
p271
S'0xFF'
p272
sS'lock_bits'
p273
S'0x0F'
p274
sS'file'
p275
S'ATmegaBOOT_168_atmega1280.hex'
p276
sS'path'
p277
S'atmega'
p278
sS'unlock_bits'
p279
S'0x3F'
p280
ssS'build'
p281
(dp282
S'core'
p283
S'arduino'
p284
sS'mcu'
p285
S'atmega1280'
p286
sS'f_cpu'
p287
S'16000000L'
p288
sS'variant'
p289
S'mega'
p290
ssS'name'
p291
S'Arduino Mega (ATmega1280)'
p292
sS'upload'
p293
(dp294
S'protocol'
p295
S'arduino'
p296
sS'maximum_size'
p297
S'126976'
p298
sS'speed'
p299
S'57600'
p300
ssaa(lp301
S'leonardo'
p302
a(dp303
g23
S'/usr/share/arduino/hardware/arduino'
p304
sS'bootloader'
p305
(dp306
S'extended_fuses'
p307
S'0xcb'
p308
sS'high_fuses'
p309
S'0xd8'
p310
sS'low_fuses'
p311
S'0xff'
p312
sS'lock_bits'
p313
S'0x2F'
p314
sS'file'
p315
S'Caterina-Leonardo.hex'
p316
sS'path'
p317
S'caterina'
p318
sS'unlock_bits'
p319
S'0x3F'
p320
ssS'build'
p321
(dp322
S'core'
p323
S'arduino'
p324
sS'f_cpu'
p325
S'16000000L'
p326
sS'vid'
p327
S'0x2341'
p328
sS'pid'
p329
S'0x8036'
p330
sS'variant'
p331
S'leonardo'
p332
sS'mcu'
p333
S'atmega32u4'
p334
ssS'name'
p335
S'Arduino Leonardo'
p336
sS'upload'
p337
(dp338
S'protocol'
p339
S'avr109'
p340
sS'maximum_size'
p341
S'28672'
p342
sS'speed'
p343
S'57600'
p344
sS'disable_flushing'
p345
S'true'
p346
ssaa(lp347
S'mini328'
p348
a(dp349
g23
S'/usr/share/arduino/hardware/arduino'
p350
sS'bootloader'
p351
(dp352
S'extended_fuses'
p353
S'0x05'
p354
sS'high_fuses'
p355
S'0xd8'
p356
sS'low_fuses'
p357
S'0xff'
p358
sS'lock_bits'
p359
S'0x0F'
p360
sS'file'
p361
S'optiboot_atmega328-Mini.hex'
p362
sS'path'
p363
S'optiboot'
p364
sS'unlock_bits'
p365
S'0x3F'
p366
ssS'build'
p367
(dp368
S'core'
p369
S'arduino'
p370
sS'mcu'
p371
S'atmega328p'
p372
sS'f_cpu'
p373
S'16000000L'
p374
sS'variant'
p375
S'eightanaloginputs'
p376
ssS'name'
p377
S'Arduino Mini w/ ATmega328'
p378
sS'upload'
p379
(dp380
S'protocol'
p381
S'arduino'
p382
sS'maximum_size'
p383
S'28672'
p384
sS'speed'
p385
S'115200'
p386
ssaa(lp387
S'mini'
p388
a(dp389
g23
S'/usr/share/arduino/hardware/arduino'
p390
sS'bootloader'
p391
(dp392
S'extended_fuses'
p393
S'0x00'
p394
sS'high_fuses'
p395
S'0xdd'
p396
sS'low_fuses'
p397
S'0xff'
p398
sS'lock_bits'
p399
S'0x0F'
p400
sS'file'
p401
S'ATmegaBOOT_168_ng.hex'
p402
sS'path'
p403
S'atmega'
p404
sS'unlock_bits'
p405
S'0x3F'
p406
ssS'build'
p407
(dp408
S'core'
p409
S'arduino'
p410
sS'mcu'
p411
S'atmega168'
p412
sS'f_cpu'
p413
S'16000000L'
p414
sS'variant'
p415
S'eightanaloginputs'
p416
ssS'name'
p417
S'Arduino Mini w/ ATmega168'
p418
sS'upload'
p419
(dp420
S'protocol'
p421
S'arduino'
p422
sS'maximum_size'
p423
S'14336'
p424
sS'speed'
p425
S'19200'
p426
ssaa(lp427
S'ethernet'
p428
a(dp429
g23
S'/usr/share/arduino/hardware/arduino'
p430
sS'bootloader'
p431
(dp432
S'extended_fuses'
p433
S'0x05'
p434
sS'high_fuses'
p435
S'0xde'
p436
sS'low_fuses'
p437
S'0xff'
p438
sS'lock_bits'
p439
S'0x0F'
p440
sS'file'
p441
S'optiboot_atmega328.hex'
p442
sS'path'
p443
S'optiboot'
p444
sS'unlock_bits'
p445
S'0x3F'
p446
ssS'build'
p447
(dp448
S'variant'
p449
S'standard'
p450
sS'mcu'
p451
S'atmega328p'
p452
sS'f_cpu'
p453
S'16000000L'
p454
sS'core'
p455
S'arduino'
p456
ssS'name'
p457
S'Arduino Ethernet'
p458
sS'upload'
p459
(dp460
S'protocol'
p461
S'arduino'
p462
sS'maximum_size'
p463
S'32256'
p464
sS'speed'
p465
S'115200'
p466
ssaa(lp467
S'fio'
p468
a(dp469
g23
S'/usr/share/arduino/hardware/arduino'
p470
sS'bootloader'
p471
(dp472
S'extended_fuses'
p473
S'0x05'
p474
sS'high_fuses'
p475
S'0xDA'
p476
sS'low_fuses'
p477
S'0xFF'
p478
sS'lock_bits'
p479
S'0x0F'
p480
sS'file'
p481
S'ATmegaBOOT_168_atmega328_pro_8MHz.hex'
p482
sS'path'
p483
S'arduino:atmega'
p484
sS'unlock_bits'
p485
S'0x3F'
p486
ssS'build'
p487
(dp488
S'core'
p489
S'arduino'
p490
sS'mcu'
p491
S'atmega328p'
p492
sS'f_cpu'
p493
S'8000000L'
p494
sS'variant'
p495
S'eightanaloginputs'
p496
ssS'name'
p497
S'Arduino Fio'
p498
sS'upload'
p499
(dp500
S'protocol'
p501
S'arduino'
p502
sS'maximum_size'
p503
S'30720'
p504
sS'speed'
p505
S'57600'
p506
ssaa(lp507
S'bt328'
p508
a(dp509
g23
S'/usr/share/arduino/hardware/arduino'
p510
sS'bootloader'
p511
(dp512
S'extended_fuses'
p513
S'0x05'
p514
sS'high_fuses'
p515
S'0xd8'
p516
sS'low_fuses'
p517
S'0xff'
p518
sS'lock_bits'
p519
S'0x0F'
p520
sS'file'
p521
S'ATmegaBOOT_168_atmega328_bt.hex'
p522
sS'path'
p523
S'bt'
p524
sS'unlock_bits'
p525
S'0x3F'
p526
ssS'build'
p527
(dp528
S'core'
p529
S'arduino'
p530
sS'mcu'
p531
S'atmega328p'
p532
sS'f_cpu'
p533
S'16000000L'
p534
sS'variant'
p535
S'eightanaloginputs'
p536
ssS'name'
p537
S'Arduino BT w/ ATmega328'
p538
sS'upload'
p539
(dp540
S'protocol'
p541
S'arduino'
p542
sS'maximum_size'
p543
S'28672'
p544
sS'speed'
p545
S'19200'
p546
sS'disable_flushing'
p547
S'true'
p548
ssaa(lp549
S'bt'
p550
a(dp551
g23
S'/usr/share/arduino/hardware/arduino'
p552
sS'bootloader'
p553
(dp554
S'extended_fuses'
p555
S'0x00'
p556
sS'high_fuses'
p557
S'0xdd'
p558
sS'low_fuses'
p559
S'0xff'
p560
sS'lock_bits'
p561
S'0x0F'
p562
sS'file'
p563
S'ATmegaBOOT_168.hex'
p564
sS'path'
p565
S'bt'
p566
sS'unlock_bits'
p567
S'0x3F'
p568
ssS'build'
p569
(dp570
S'core'
p571
S'arduino'
p572
sS'mcu'
p573
S'atmega168'
p574
sS'f_cpu'
p575
S'16000000L'
p576
sS'variant'
p577
S'eightanaloginputs'
p578
ssS'name'
p579
S'Arduino BT w/ ATmega168'
p580
sS'upload'
p581
(dp582
S'protocol'
p583
S'arduino'
p584
sS'maximum_size'
p585
S'14336'
p586
sS'speed'
p587
S'19200'
p588
sS'disable_flushing'
p589
S'true'
p590
ssaa(lp591
S'lilypad328'
p592
a(dp593
g23
S'/usr/share/arduino/hardware/arduino'
p594
sS'bootloader'
p595
(dp596
S'extended_fuses'
p597
S'0x05'
p598
sS'high_fuses'
p599
S'0xDA'
p600
sS'low_fuses'
p601
S'0xFF'
p602
sS'lock_bits'
p603
S'0x0F'
p604
sS'file'
p605
S'ATmegaBOOT_168_atmega328_pro_8MHz.hex'
p606
sS'path'
p607
S'atmega'
p608
sS'unlock_bits'
p609
S'0x3F'
p610
ssS'build'
p611
(dp612
S'core'
p613
S'arduino'
p614
sS'mcu'
p615
S'atmega328p'
p616
sS'f_cpu'
p617
S'8000000L'
p618
sS'variant'
p619
S'standard'
p620
ssS'name'
p621
S'LilyPad Arduino w/ ATmega328'
p622
sS'upload'
p623
(dp624
S'protocol'
p625
S'arduino'
p626
sS'maximum_size'
p627
S'30720'
p628
sS'speed'
p629
S'57600'
p630
ssaa(lp631
S'lilypad'
p632
a(dp633
g23
S'/usr/share/arduino/hardware/arduino'
p634
sS'bootloader'
p635
(dp636
S'extended_fuses'
p637
S'0x00'
p638
sS'high_fuses'
p639
S'0xdd'
p640
sS'low_fuses'
p641
S'0xe2'
p642
sS'lock_bits'
p643
S'0x0F'
p644
sS'file'
p645
S'LilyPadBOOT_168.hex'
p646
sS'path'
p647
S'lilypad'
p648
sS'unlock_bits'
p649
S'0x3F'
p650
ssS'build'
p651
(dp652
S'core'
p653
S'arduino'
p654
sS'mcu'
p655
S'atmega168'
p656
sS'f_cpu'
p657
S'8000000L'
p658
sS'variant'
p659
S'standard'
p660
ssS'name'
p661
S'LilyPad Arduino w/ ATmega168'
p662
sS'upload'
p663
(dp664
S'protocol'
p665
S'arduino'
p666
sS'maximum_size'
p667
S'14336'
p668
sS'speed'
p669
S'19200'
p670
ssaa(lp671
S'pro5v328'
p672
a(dp673
g23
S'/usr/share/arduino/hardware/arduino'
p674
sS'bootloader'
p675
(dp676
S'extended_fuses'
p677
S'0x05'
p678
sS'high_fuses'
p679
S'0xDA'
p680
sS'low_fuses'
p681
S'0xFF'
p682
sS'lock_bits'
p683
S'0x0F'
p684
sS'file'
p685
S'ATmegaBOOT_168_atmega328.hex'
p686
sS'path'
p687
S'atmega'
p688
sS'unlock_bits'
p689
S'0x3F'
p690
ssS'build'
p691
(dp692
S'core'
p693
S'arduino'
p694
sS'mcu'
p695
S'atmega328p'
p696
sS'f_cpu'
p697
S'16000000L'
p698
sS'variant'
p699
S'standard'
p700
ssS'name'
p701
S'Arduino Pro or Pro Mini (5V, 16 MHz) w/ ATmega328'
p702
sS'upload'
p703
(dp704
S'protocol'
p705
S'arduino'
p706
sS'maximum_size'
p707
S'30720'
p708
sS'speed'
p709
S'57600'
p710
ssaa(lp711
S'pro5v'
p712
a(dp713
g23
S'/usr/share/arduino/hardware/arduino'
p714
sS'bootloader'
p715
(dp716
S'extended_fuses'
p717
S'0x00'
p718
sS'high_fuses'
p719
S'0xdd'
p720
sS'low_fuses'
p721
S'0xff'
p722
sS'lock_bits'
p723
S'0x0F'
p724
sS'file'
p725
S'ATmegaBOOT_168_diecimila.hex'
p726
sS'path'
p727
S'atmega'
p728
sS'unlock_bits'
p729
S'0x3F'
p730
ssS'build'
p731
(dp732
S'core'
p733
S'arduino'
p734
sS'mcu'
p735
S'atmega168'
p736
sS'f_cpu'
p737
S'16000000L'
p738
sS'variant'
p739
S'standard'
p740
ssS'name'
p741
S'Arduino Pro or Pro Mini (5V, 16 MHz) w/ ATmega168'
p742
sS'upload'
p743
(dp744
S'protocol'
p745
S'arduino'
p746
sS'maximum_size'
p747
S'14336'
p748
sS'speed'
p749
S'19200'
p750
ssaa(lp751
S'pro328'
p752
a(dp753
g23
S'/usr/share/arduino/hardware/arduino'
p754
sS'bootloader'
p755
(dp756
S'extended_fuses'
p757
S'0x05'
p758
sS'high_fuses'
p759
S'0xDA'
p760
sS'low_fuses'
p761
S'0xFF'
p762
sS'lock_bits'
p763
S'0x0F'
p764
sS'file'
p765
S'ATmegaBOOT_168_atmega328_pro_8MHz.hex'
p766
sS'path'
p767
S'atmega'
p768
sS'unlock_bits'
p769
S'0x3F'
p770
ssS'build'
p771
(dp772
S'core'
p773
S'arduino'
p774
sS'mcu'
p775
S'atmega328p'
p776
sS'f_cpu'
p777
S'8000000L'
p778
sS'variant'
p779
S'standard'
p780
ssS'name'
p781
S'Arduino Pro or Pro Mini (3.3V, 8 MHz) w/ ATmega328'
p782
sS'upload'
p783
(dp784
S'protocol'
p785
S'arduino'
p786
sS'maximum_size'
p787
S'30720'
p788
sS'speed'
p789
S'57600'
p790
ssaa(lp791
S'pro'
p792
a(dp793
g23
S'/usr/share/arduino/hardware/arduino'
p794
sS'bootloader'
p795
(dp796
S'extended_fuses'
p797
S'0x00'
p798
sS'high_fuses'
p799
S'0xdd'
p800
sS'low_fuses'
p801
S'0xc6'
p802
sS'lock_bits'
p803
S'0x0F'
p804
sS'file'
p805
S'ATmegaBOOT_168_pro_8MHz.hex'
p806
sS'path'
p807
S'atmega'
p808
sS'unlock_bits'
p809
S'0x3F'
p810
ssS'build'
p811
(dp812
S'core'
p813
S'arduino'
p814
sS'mcu'
p815
S'atmega168'
p816
sS'f_cpu'
p817
S'8000000L'
p818
sS'variant'
p819
S'standard'
p820
ssS'name'
p821
S'Arduino Pro or Pro Mini (3.3V, 8 MHz) w/ ATmega168'
p822
sS'upload'
p823
(dp824
S'protocol'
p825
S'arduino'
p826
sS'maximum_size'
p827
S'14336'
p828
sS'speed'
p829
S'19200'
p830
ssaa(lp831
S'atmega168'
p832
a(dp833
g23
S'/usr/share/arduino/hardware/arduino'
p834
sS'bootloader'
p835
(dp836
S'extended_fuses'
p837
S'0x00'
p838
sS'high_fuses'
p839
S'0xdd'
p840
sS'low_fuses'
p841
S'0xff'
p842
sS'lock_bits'
p843
S'0x0F'
p844
sS'file'
p845
S'ATmegaBOOT_168_ng.hex'
p846
sS'path'
p847
S'atmega'
p848
sS'unlock_bits'
p849
S'0x3F'
p850
ssS'build'
p851
(dp852
S'core'
p853
S'arduino'
p854
sS'mcu'
p855
S'atmega168'
p856
sS'f_cpu'
p857
S'16000000L'
p858
sS'variant'
p859
S'standard'
p860
ssS'name'
p861
S'Arduino NG or older w/ ATmega168'
p862
sS'upload'
p863
(dp864
S'protocol'
p865
S'arduino'
p866
sS'maximum_size'
p867
S'14336'
p868
sS'speed'
p869
S'19200'
p870
ssaa(lp871
S'atmega8'
p872
a(dp873
g23
S'/usr/share/arduino/hardware/arduino'
p874
sS'bootloader'
p875
(dp876
S'high_fuses'
p877
S'0xca'
p878
sS'low_fuses'
p879
S'0xdf'
p880
sS'lock_bits'
p881
S'0x0F'
p882
sS'file'
p883
S'ATmegaBOOT.hex'
p884
sS'path'
p885
S'atmega8'
p886
sS'unlock_bits'
p887
S'0x3F'
p888
ssS'build'
p889
(dp890
S'core'
p891
S'arduino'
p892
sS'mcu'
p893
S'atmega8'
p894
sS'f_cpu'
p895
S'16000000L'
p896
sS'variant'
p897
S'standard'
p898
ssS'name'
p899
S'Arduino NG or older w/ ATmega8'
p900
sS'upload'
p901
(dp902
S'protocol'
p903
S'arduino'
p904
sS'maximum_size'
p905
S'7168'
p906
sS'speed'
p907
S'19200'
p908
ssaatp909
Rp910
(dp911
S'default'
p912
S'uno'
p913
sbtp914
a.